Certificate:
    Data:
        Version: 3 (0x2)
        Serial Number:
            28:e8:09:b3:1c:8d:99:b8:15:c1:4b:e5:ba:89:9e:f4
        Signature Algorithm: sha256WithRSAEncryption
        Issuer: CN=Easy-RSA CA
        Validity
            Not Before: Aug  8 03:12:18 2023 GMT
            Not After : Nov 10 03:12:18 2025 GMT
        Subject: CN=211.222.171.233
        Subject Public Key Info:
            Public Key Algorithm: rsaEncryption
                RSA Public-Key: (2048 bit)
                Modulus:
                    00:bd:90:74:38:35:c2:14:08:10:82:01:13:10:72:
                    66:f6:06:82:ae:17:a0:3d:ed:6f:a4:4f:e0:a4:dd:
                    e2:9f:3a:78:0d:dc:71:51:48:9f:89:6a:fb:95:5b:
                    fe:ed:6f:09:73:b3:63:17:6c:d3:96:d7:7f:4e:76:
                    f3:a7:72:e9:e7:34:90:38:70:a2:f0:2d:01:16:d9:
                    a9:5c:72:87:87:57:6f:52:67:69:2c:92:28:b8:c5:
                    31:13:4d:9b:2c:6c:9c:f6:a9:77:41:7a:ca:1e:32:
                    9d:61:dd:13:32:9b:49:4b:73:9b:f7:f8:ba:07:59:
                    07:43:fe:89:19:c5:eb:a3:3b:dc:2e:c3:93:e0:6a:
                    99:2e:33:14:b2:48:1f:03:0e:8e:bc:6c:40:fe:c3:
                    6f:c5:50:23:ec:c1:64:83:9f:19:19:47:da:4b:00:
                    fb:a5:bb:a2:74:7b:8e:92:fa:c1:2e:cc:59:ff:0b:
                    f0:70:d6:9d:50:f9:c7:c1:c4:7b:a8:7b:21:c2:91:
                    1c:82:ea:e1:4d:94:f1:1a:f8:82:61:b3:12:7e:d0:
                    b5:f0:70:dd:de:b9:ec:48:88:34:ad:95:be:f0:48:
                    f1:02:1f:97:a4:0c:d6:95:8b:6a:1e:aa:e2:4c:c1:
                    af:38:f1:17:1c:ae:dc:7d:27:6a:f2:b7:01:6e:f3:
                    ec:f1
                Exponent: 65537 (0x10001)
        X509v3 extensions:
            X509v3 Basic Constraints: 
                CA:FALSE
            X509v3 Subject Key Identifier: 
                FE:4E:15:EA:DB:34:46:EE:4D:6D:BA:96:C3:B6:37:BE:54:3C:81:92
            X509v3 Authority Key Identifier: 
                keyid:23:C8:B3:63:0F:0F:B4:8B:86:B3:CA:43:1A:24:AF:79:8A:EF:00:80
                DirName:/CN=Easy-RSA CA
                serial:2F:DF:20:28:42:AE:E1:FB:71:BF:07:1F:A3:E9:84:74:50:5A:64:F7

            X509v3 Extended Key Usage: 
                TLS Web Server Authentication
            X509v3 Key Usage: 
                Digital Signature, Key Encipherment
            X509v3 Subject Alternative Name: 
                IP Address:211.222.171.233
    Signature Algorithm: sha256WithRSAEncryption
         8b:99:a4:01:05:61:a6:0c:7d:d2:e4:84:1a:4d:b0:c2:f6:e3:
         87:54:91:16:1c:1e:85:e9:5d:97:fc:ab:ce:da:1e:90:30:45:
         7a:f7:08:da:ae:39:1c:4c:dd:07:32:88:bb:76:7b:ca:d5:c4:
         75:35:94:e3:31:1d:c8:36:4d:f5:ca:45:2a:3b:18:04:ca:f6:
         8f:38:40:35:a2:84:9b:fb:09:9c:10:33:5e:9e:c6:5e:e5:ad:
         d3:f1:6f:d9:41:74:4c:9e:d7:29:36:2f:23:df:40:5f:a9:80:
         cd:00:31:8e:3e:4c:60:be:2e:23:a6:57:a9:77:2b:96:43:6e:
         f6:39:cf:10:bd:80:5b:73:22:6b:8e:34:22:9f:95:e1:e5:dd:
         33:5b:fa:b5:66:22:3f:a7:2c:e6:9a:7f:84:5f:3c:01:f9:03:
         a5:e8:4e:0b:09:f5:b0:85:1f:8c:82:b5:3f:cf:4a:98:1c:d0:
         60:24:1d:c7:87:1c:1f:70:ce:da:0d:bc:b4:0a:49:e2:03:ad:
         33:3e:4a:53:b5:c6:2d:2f:aa:4b:ba:ad:a3:a4:36:14:ee:50:
         68:ee:a0:11:68:a1:db:9e:fc:71:95:7a:b7:ec:b1:06:be:48:
         19:b4:c8:28:bd:8c:81:56:24:c1:66:4a:0a:cd:c0:c0:58:f4:
         86:55:b4:5c
-----BEGIN CERTIFICATE-----
MIIDbjCCAlagAwIBAgIQKOgJsxyNmbgVwUvluome9DANBgkqhkiG9w0BAQsFADAW
MRQwEgYDVQQDDAtFYXN5LVJTQSBDQTAeFw0yMzA4MDgwMzEyMThaFw0yNTExMTAw
MzEyMThaMBoxGDAWBgNVBAMMDzIxMS4yMjIuMTcxLjIzMzCCASIwDQYJKoZIhvcN
AQEBBQADggEPADCCAQoCggEBAL2QdDg1whQIEIIBExByZvYGgq4XoD3tb6RP4KTd
4p86eA3ccVFIn4lq+5Vb/u1vCXOzYxds05bXf05286dy6ec0kDhwovAtARbZqVxy
h4dXb1JnaSySKLjFMRNNmyxsnPapd0F6yh4ynWHdEzKbSUtzm/f4ugdZB0P+iRnF
66M73C7Dk+BqmS4zFLJIHwMOjrxsQP7Db8VQI+zBZIOfGRlH2ksA+6W7onR7jpL6
wS7MWf8L8HDWnVD5x8HEe6h7IcKRHILq4U2U8Rr4gmGzEn7QtfBw3d657EiINK2V
vvBI8QIfl6QM1pWLah6q4kzBrzjxFxyu3H0navK3AW7z7PECAwEAAaOBszCBsDAJ
BgNVHRMEAjAAMB0GA1UdDgQWBBT+ThXq2zRG7k1tupbDtje+VDyBkjBRBgNVHSME
SjBIgBQjyLNjDw+0i4azykMaJK95iu8AgKEapBgwFjEUMBIGA1UEAwwLRWFzeS1S
U0EgQ0GCFC/fIChCruH7cb8HH6PphHRQWmT3MBMGA1UdJQQMMAoGCCsGAQUFBwMB
MAsGA1UdDwQEAwIFoDAPBgNVHREECDAGhwTT3qvpMA0GCSqGSIb3DQEBCwUAA4IB
AQCLmaQBBWGmDH3S5IQaTbDC9uOHVJEWHB6F6V2X/KvO2h6QMEV69wjarjkcTN0H
Moi7dnvK1cR1NZTjMR3INk31ykUqOxgEyvaPOEA1ooSb+wmcEDNensZe5a3T8W/Z
QXRMntcpNi8j30BfqYDNADGOPkxgvi4jplepdyuWQ272Oc8QvYBbcyJrjjQin5Xh
5d0zW/q1ZiI/pyzmmn+EXzwB+QOl6E4LCfWwhR+MgrU/z0qYHNBgJB3HhxwfcM7a
Dby0CkniA60zPkpTtcYtL6pLuq2jpDYU7lBo7qARaKHbnvxxlXq37LEGvkgZtMgo
vYyBViTBZkoKzcDAWPSGVbRc
-----END CERTIFICATE-----
